
_ln:     file format elf32-i386


Disassembly of section .text:

00000000 <main>:
#include "stat.h"
#include "user.h"

int
main(int argc, char *argv[])
{
   0:	8d 4c 24 04          	lea    0x4(%esp),%ecx
   4:	83 e4 f0             	and    $0xfffffff0,%esp
   7:	ff 71 fc             	push   -0x4(%ecx)
   a:	55                   	push   %ebp
   b:	89 e5                	mov    %esp,%ebp
   d:	53                   	push   %ebx
   e:	51                   	push   %ecx
   f:	8b 59 04             	mov    0x4(%ecx),%ebx
  if(argc != 3){
  12:	83 39 03             	cmpl   $0x3,(%ecx)
  15:	74 14                	je     2b <main+0x2b>
    printf(2, "Usage: ln old new\n");
  17:	83 ec 08             	sub    $0x8,%esp
  1a:	68 38 03 00 00       	push   $0x338
  1f:	6a 02                	push   $0x2
  21:	e8 ab 01 00 00       	call   1d1 <printf>
    exit();
  26:	e8 39 00 00 00       	call   64 <exit>
  }
  if(link(argv[1], argv[2]) < 0)
  2b:	83 ec 08             	sub    $0x8,%esp
  2e:	ff 73 08             	push   0x8(%ebx)
  31:	ff 73 04             	push   0x4(%ebx)
  34:	e8 8b 00 00 00       	call   c4 <link>
  39:	83 c4 10             	add    $0x10,%esp
  3c:	85 c0                	test   %eax,%eax
  3e:	78 05                	js     45 <main+0x45>
    printf(2, "link %s %s: failed\n", argv[1], argv[2]);
  exit();
  40:	e8 1f 00 00 00       	call   64 <exit>
    printf(2, "link %s %s: failed\n", argv[1], argv[2]);
  45:	ff 73 08             	push   0x8(%ebx)
  48:	ff 73 04             	push   0x4(%ebx)
  4b:	68 4b 03 00 00       	push   $0x34b
  50:	6a 02                	push   $0x2
  52:	e8 7a 01 00 00       	call   1d1 <printf>
  57:	83 c4 10             	add    $0x10,%esp
  5a:	eb e4                	jmp    40 <main+0x40>

0000005c <fork>:
  name: \
    movl $SYS_ ## name, %eax; \
    int $T_SYSCALL; \
    ret

SYSCALL(fork)
  5c:	b8 01 00 00 00       	mov    $0x1,%eax
  61:	cd 40                	int    $0x40
  63:	c3                   	ret    

00000064 <exit>:
SYSCALL(exit)
  64:	b8 02 00 00 00       	mov    $0x2,%eax
  69:	cd 40                	int    $0x40
  6b:	c3                   	ret    

0000006c <wait>:
SYSCALL(wait)
  6c:	b8 03 00 00 00       	mov    $0x3,%eax
  71:	cd 40                	int    $0x40
  73:	c3                   	ret    

00000074 <pipe>:
SYSCALL(pipe)
  74:	b8 04 00 00 00       	mov    $0x4,%eax
  79:	cd 40                	int    $0x40
  7b:	c3                   	ret    

0000007c <read>:
SYSCALL(read)
  7c:	b8 05 00 00 00       	mov    $0x5,%eax
  81:	cd 40                	int    $0x40
  83:	c3                   	ret    

00000084 <write>:
SYSCALL(write)
  84:	b8 10 00 00 00       	mov    $0x10,%eax
  89:	cd 40                	int    $0x40
  8b:	c3                   	ret    

0000008c <close>:
SYSCALL(close)
  8c:	b8 15 00 00 00       	mov    $0x15,%eax
  91:	cd 40                	int    $0x40
  93:	c3                   	ret    

00000094 <kill>:
SYSCALL(kill)
  94:	b8 06 00 00 00       	mov    $0x6,%eax
  99:	cd 40                	int    $0x40
  9b:	c3                   	ret    

0000009c <exec>:
SYSCALL(exec)
  9c:	b8 07 00 00 00       	mov    $0x7,%eax
  a1:	cd 40                	int    $0x40
  a3:	c3                   	ret    

000000a4 <open>:
SYSCALL(open)
  a4:	b8 0f 00 00 00       	mov    $0xf,%eax
  a9:	cd 40                	int    $0x40
  ab:	c3                   	ret    

000000ac <mknod>:
SYSCALL(mknod)
  ac:	b8 11 00 00 00       	mov    $0x11,%eax
  b1:	cd 40                	int    $0x40
  b3:	c3                   	ret    

000000b4 <unlink>:
SYSCALL(unlink)
  b4:	b8 12 00 00 00       	mov    $0x12,%eax
  b9:	cd 40                	int    $0x40
  bb:	c3                   	ret    

000000bc <fstat>:
SYSCALL(fstat)
  bc:	b8 08 00 00 00       	mov    $0x8,%eax
  c1:	cd 40                	int    $0x40
  c3:	c3                   	ret    

000000c4 <link>:
SYSCALL(link)
  c4:	b8 13 00 00 00       	mov    $0x13,%eax
  c9:	cd 40                	int    $0x40
  cb:	c3                   	ret    

000000cc <mkdir>:
SYSCALL(mkdir)
  cc:	b8 14 00 00 00       	mov    $0x14,%eax
  d1:	cd 40                	int    $0x40
  d3:	c3                   	ret    

000000d4 <chdir>:
SYSCALL(chdir)
  d4:	b8 09 00 00 00       	mov    $0x9,%eax
  d9:	cd 40                	int    $0x40
  db:	c3                   	ret    

000000dc <dup>:
SYSCALL(dup)
  dc:	b8 0a 00 00 00       	mov    $0xa,%eax
  e1:	cd 40                	int    $0x40
  e3:	c3                   	ret    

000000e4 <getpid>:
SYSCALL(getpid)
  e4:	b8 0b 00 00 00       	mov    $0xb,%eax
  e9:	cd 40                	int    $0x40
  eb:	c3                   	ret    

000000ec <sbrk>:
SYSCALL(sbrk)
  ec:	b8 0c 00 00 00       	mov    $0xc,%eax
  f1:	cd 40                	int    $0x40
  f3:	c3                   	ret    

000000f4 <sleep>:
SYSCALL(sleep)
  f4:	b8 0d 00 00 00       	mov    $0xd,%eax
  f9:	cd 40                	int    $0x40
  fb:	c3                   	ret    

000000fc <uptime>:
SYSCALL(uptime)
  fc:	b8 0e 00 00 00       	mov    $0xe,%eax
 101:	cd 40                	int    $0x40
 103:	c3                   	ret    

00000104 <yield>:
SYSCALL(yield)
 104:	b8 16 00 00 00       	mov    $0x16,%eax
 109:	cd 40                	int    $0x40
 10b:	c3                   	ret    

0000010c <getpagetableentry>:
SYSCALL(getpagetableentry)
 10c:	b8 18 00 00 00       	mov    $0x18,%eax
 111:	cd 40                	int    $0x40
 113:	c3                   	ret    

00000114 <isphysicalpagefree>:
SYSCALL(isphysicalpagefree)
 114:	b8 19 00 00 00       	mov    $0x19,%eax
 119:	cd 40                	int    $0x40
 11b:	c3                   	ret    

0000011c <dumppagetable>:
SYSCALL(dumppagetable)
 11c:	b8 1a 00 00 00       	mov    $0x1a,%eax
 121:	cd 40                	int    $0x40
 123:	c3                   	ret    

00000124 <shutdown>:
SYSCALL(shutdown)
 124:	b8 17 00 00 00       	mov    $0x17,%eax
 129:	cd 40                	int    $0x40
 12b:	c3                   	ret    

0000012c <putc>:
#include "stat.h"
#include "user.h"

static void
putc(int fd, char c)
{
 12c:	55                   	push   %ebp
 12d:	89 e5                	mov    %esp,%ebp
 12f:	83 ec 1c             	sub    $0x1c,%esp
 132:	88 55 f4             	mov    %dl,-0xc(%ebp)
  write(fd, &c, 1);
 135:	6a 01                	push   $0x1
 137:	8d 55 f4             	lea    -0xc(%ebp),%edx
 13a:	52                   	push   %edx
 13b:	50                   	push   %eax
 13c:	e8 43 ff ff ff       	call   84 <write>
}
 141:	83 c4 10             	add    $0x10,%esp
 144:	c9                   	leave  
 145:	c3                   	ret    

00000146 <printint>:

static void
printint(int fd, int xx, int base, int sgn)
{
 146:	55                   	push   %ebp
 147:	89 e5                	mov    %esp,%ebp
 149:	57                   	push   %edi
 14a:	56                   	push   %esi
 14b:	53                   	push   %ebx
 14c:	83 ec 2c             	sub    $0x2c,%esp
 14f:	89 45 d0             	mov    %eax,-0x30(%ebp)
 152:	89 d0                	mov    %edx,%eax
 154:	89 ce                	mov    %ecx,%esi
  char buf[16];
  int i, neg;
  uint x;

  neg = 0;
  if(sgn && xx < 0){
 156:	83 7d 08 00          	cmpl   $0x0,0x8(%ebp)
 15a:	0f 95 c1             	setne  %cl
 15d:	c1 ea 1f             	shr    $0x1f,%edx
 160:	84 d1                	test   %dl,%cl
 162:	74 44                	je     1a8 <printint+0x62>
    neg = 1;
    x = -xx;
 164:	f7 d8                	neg    %eax
 166:	89 c1                	mov    %eax,%ecx
    neg = 1;
 168:	c7 45 d4 01 00 00 00 	movl   $0x1,-0x2c(%ebp)
  } else {
    x = xx;
  }

  i = 0;
 16f:	bb 00 00 00 00       	mov    $0x0,%ebx
  do{
    buf[i++] = digits[x % base];
 174:	89 c8                	mov    %ecx,%eax
 176:	ba 00 00 00 00       	mov    $0x0,%edx
 17b:	f7 f6                	div    %esi
 17d:	89 df                	mov    %ebx,%edi
 17f:	83 c3 01             	add    $0x1,%ebx
 182:	0f b6 92 c0 03 00 00 	movzbl 0x3c0(%edx),%edx
 189:	88 54 3d d8          	mov    %dl,-0x28(%ebp,%edi,1)
  }while((x /= base) != 0);
 18d:	89 ca                	mov    %ecx,%edx
 18f:	89 c1                	mov    %eax,%ecx
 191:	39 d6                	cmp    %edx,%esi
 193:	76 df                	jbe    174 <printint+0x2e>
  if(neg)
 195:	83 7d d4 00          	cmpl   $0x0,-0x2c(%ebp)
 199:	74 31                	je     1cc <printint+0x86>
    buf[i++] = '-';
 19b:	c6 44 1d d8 2d       	movb   $0x2d,-0x28(%ebp,%ebx,1)
 1a0:	8d 5f 02             	lea    0x2(%edi),%ebx
 1a3:	8b 75 d0             	mov    -0x30(%ebp),%esi
 1a6:	eb 17                	jmp    1bf <printint+0x79>
    x = xx;
 1a8:	89 c1                	mov    %eax,%ecx
  neg = 0;
 1aa:	c7 45 d4 00 00 00 00 	movl   $0x0,-0x2c(%ebp)
 1b1:	eb bc                	jmp    16f <printint+0x29>

  while(--i >= 0)
    putc(fd, buf[i]);
 1b3:	0f be 54 1d d8       	movsbl -0x28(%ebp,%ebx,1),%edx
 1b8:	89 f0                	mov    %esi,%eax
 1ba:	e8 6d ff ff ff       	call   12c <putc>
  while(--i >= 0)
 1bf:	83 eb 01             	sub    $0x1,%ebx
 1c2:	79 ef                	jns    1b3 <printint+0x6d>
}
 1c4:	83 c4 2c             	add    $0x2c,%esp
 1c7:	5b                   	pop    %ebx
 1c8:	5e                   	pop    %esi
 1c9:	5f                   	pop    %edi
 1ca:	5d                   	pop    %ebp
 1cb:	c3                   	ret    
 1cc:	8b 75 d0             	mov    -0x30(%ebp),%esi
 1cf:	eb ee                	jmp    1bf <printint+0x79>

000001d1 <printf>:

// Print to the given fd. Only understands %d, %x, %p, %s.
void
printf(int fd, const char *fmt, ...)
{
 1d1:	55                   	push   %ebp
 1d2:	89 e5                	mov    %esp,%ebp
 1d4:	57                   	push   %edi
 1d5:	56                   	push   %esi
 1d6:	53                   	push   %ebx
 1d7:	83 ec 1c             	sub    $0x1c,%esp
  char *s;
  int c, i, state;
  uint *ap;

  state = 0;
  ap = (uint*)(void*)&fmt + 1;
 1da:	8d 45 10             	lea    0x10(%ebp),%eax
 1dd:	89 45 e4             	mov    %eax,-0x1c(%ebp)
  state = 0;
 1e0:	be 00 00 00 00       	mov    $0x0,%esi
  for(i = 0; fmt[i]; i++){
 1e5:	bb 00 00 00 00       	mov    $0x0,%ebx
 1ea:	eb 14                	jmp    200 <printf+0x2f>
    c = fmt[i] & 0xff;
    if(state == 0){
      if(c == '%'){
        state = '%';
      } else {
        putc(fd, c);
 1ec:	89 fa                	mov    %edi,%edx
 1ee:	8b 45 08             	mov    0x8(%ebp),%eax
 1f1:	e8 36 ff ff ff       	call   12c <putc>
 1f6:	eb 05                	jmp    1fd <printf+0x2c>
      }
    } else if(state == '%'){
 1f8:	83 fe 25             	cmp    $0x25,%esi
 1fb:	74 25                	je     222 <printf+0x51>
  for(i = 0; fmt[i]; i++){
 1fd:	83 c3 01             	add    $0x1,%ebx
 200:	8b 45 0c             	mov    0xc(%ebp),%eax
 203:	0f b6 04 18          	movzbl (%eax,%ebx,1),%eax
 207:	84 c0                	test   %al,%al
 209:	0f 84 20 01 00 00    	je     32f <printf+0x15e>
    c = fmt[i] & 0xff;
 20f:	0f be f8             	movsbl %al,%edi
 212:	0f b6 c0             	movzbl %al,%eax
    if(state == 0){
 215:	85 f6                	test   %esi,%esi
 217:	75 df                	jne    1f8 <printf+0x27>
      if(c == '%'){
 219:	83 f8 25             	cmp    $0x25,%eax
 21c:	75 ce                	jne    1ec <printf+0x1b>
        state = '%';
 21e:	89 c6                	mov    %eax,%esi
 220:	eb db                	jmp    1fd <printf+0x2c>
      if(c == 'd'){
 222:	83 f8 25             	cmp    $0x25,%eax
 225:	0f 84 cf 00 00 00    	je     2fa <printf+0x129>
 22b:	0f 8c dd 00 00 00    	jl     30e <printf+0x13d>
 231:	83 f8 78             	cmp    $0x78,%eax
 234:	0f 8f d4 00 00 00    	jg     30e <printf+0x13d>
 23a:	83 f8 63             	cmp    $0x63,%eax
 23d:	0f 8c cb 00 00 00    	jl     30e <printf+0x13d>
 243:	83 e8 63             	sub    $0x63,%eax
 246:	83 f8 15             	cmp    $0x15,%eax
 249:	0f 87 bf 00 00 00    	ja     30e <printf+0x13d>
 24f:	ff 24 85 68 03 00 00 	jmp    *0x368(,%eax,4)
        printint(fd, *ap, 10, 1);
 256:	8b 7d e4             	mov    -0x1c(%ebp),%edi
 259:	8b 17                	mov    (%edi),%edx
 25b:	83 ec 0c             	sub    $0xc,%esp
 25e:	6a 01                	push   $0x1
 260:	b9 0a 00 00 00       	mov    $0xa,%ecx
 265:	8b 45 08             	mov    0x8(%ebp),%eax
 268:	e8 d9 fe ff ff       	call   146 <printint>
        ap++;
 26d:	83 c7 04             	add    $0x4,%edi
 270:	89 7d e4             	mov    %edi,-0x1c(%ebp)
 273:	83 c4 10             	add    $0x10,%esp
      } else {
        // Unknown % sequence.  Print it to draw attention.
        putc(fd, '%');
        putc(fd, c);
      }
      state = 0;
 276:	be 00 00 00 00       	mov    $0x0,%esi
 27b:	eb 80                	jmp    1fd <printf+0x2c>
        printint(fd, *ap, 16, 0);
 27d:	8b 7d e4             	mov    -0x1c(%ebp),%edi
 280:	8b 17                	mov    (%edi),%edx
 282:	83 ec 0c             	sub    $0xc,%esp
 285:	6a 00                	push   $0x0
 287:	b9 10 00 00 00       	mov    $0x10,%ecx
 28c:	8b 45 08             	mov    0x8(%ebp),%eax
 28f:	e8 b2 fe ff ff       	call   146 <printint>
        ap++;
 294:	83 c7 04             	add    $0x4,%edi
 297:	89 7d e4             	mov    %edi,-0x1c(%ebp)
 29a:	83 c4 10             	add    $0x10,%esp
      state = 0;
 29d:	be 00 00 00 00       	mov    $0x0,%esi
 2a2:	e9 56 ff ff ff       	jmp    1fd <printf+0x2c>
        s = (char*)*ap;
 2a7:	8b 45 e4             	mov    -0x1c(%ebp),%eax
 2aa:	8b 30                	mov    (%eax),%esi
        ap++;
 2ac:	83 c0 04             	add    $0x4,%eax
 2af:	89 45 e4             	mov    %eax,-0x1c(%ebp)
        if(s == 0)
 2b2:	85 f6                	test   %esi,%esi
 2b4:	75 15                	jne    2cb <printf+0xfa>
          s = "(null)";
 2b6:	be 5f 03 00 00       	mov    $0x35f,%esi
 2bb:	eb 0e                	jmp    2cb <printf+0xfa>
          putc(fd, *s);
 2bd:	0f be d2             	movsbl %dl,%edx
 2c0:	8b 45 08             	mov    0x8(%ebp),%eax
 2c3:	e8 64 fe ff ff       	call   12c <putc>
          s++;
 2c8:	83 c6 01             	add    $0x1,%esi
        while(*s != 0){
 2cb:	0f b6 16             	movzbl (%esi),%edx
 2ce:	84 d2                	test   %dl,%dl
 2d0:	75 eb                	jne    2bd <printf+0xec>
      state = 0;
 2d2:	be 00 00 00 00       	mov    $0x0,%esi
 2d7:	e9 21 ff ff ff       	jmp    1fd <printf+0x2c>
        putc(fd, *ap);
 2dc:	8b 7d e4             	mov    -0x1c(%ebp),%edi
 2df:	0f be 17             	movsbl (%edi),%edx
 2e2:	8b 45 08             	mov    0x8(%ebp),%eax
 2e5:	e8 42 fe ff ff       	call   12c <putc>
        ap++;
 2ea:	83 c7 04             	add    $0x4,%edi
 2ed:	89 7d e4             	mov    %edi,-0x1c(%ebp)
      state = 0;
 2f0:	be 00 00 00 00       	mov    $0x0,%esi
 2f5:	e9 03 ff ff ff       	jmp    1fd <printf+0x2c>
        putc(fd, c);
 2fa:	89 fa                	mov    %edi,%edx
 2fc:	8b 45 08             	mov    0x8(%ebp),%eax
 2ff:	e8 28 fe ff ff       	call   12c <putc>
      state = 0;
 304:	be 00 00 00 00       	mov    $0x0,%esi
 309:	e9 ef fe ff ff       	jmp    1fd <printf+0x2c>
        putc(fd, '%');
 30e:	ba 25 00 00 00       	mov    $0x25,%edx
 313:	8b 45 08             	mov    0x8(%ebp),%eax
 316:	e8 11 fe ff ff       	call   12c <putc>
        putc(fd, c);
 31b:	89 fa                	mov    %edi,%edx
 31d:	8b 45 08             	mov    0x8(%ebp),%eax
 320:	e8 07 fe ff ff       	call   12c <putc>
      state = 0;
 325:	be 00 00 00 00       	mov    $0x0,%esi
 32a:	e9 ce fe ff ff       	jmp    1fd <printf+0x2c>
    }
  }
}
 32f:	8d 65 f4             	lea    -0xc(%ebp),%esp
 332:	5b                   	pop    %ebx
 333:	5e                   	pop    %esi
 334:	5f                   	pop    %edi
 335:	5d                   	pop    %ebp
 336:	c3                   	ret    
